
SPI_Driver.elf:     file format elf32-avr

Sections:
Idx Name          Size      VMA       LMA       File off  Algn
  0 .text         00000b08  00000000  00000000  00000074  2**1
                  CONTENTS, ALLOC, LOAD, READONLY, CODE
  1 .bss          00000003  00800060  00800060  00000b7c  2**0
                  ALLOC
  2 .stab         00000db0  00000000  00000000  00000b7c  2**2
                  CONTENTS, READONLY, DEBUGGING
  3 .stabstr      00000a67  00000000  00000000  0000192c  2**0
                  CONTENTS, READONLY, DEBUGGING

Disassembly of section .text:

00000000 <__vectors>:
   0:	0c 94 2a 00 	jmp	0x54	; 0x54 <__ctors_end>
   4:	0c 94 3c 00 	jmp	0x78	; 0x78 <__bad_interrupt>
   8:	0c 94 3c 00 	jmp	0x78	; 0x78 <__bad_interrupt>
   c:	0c 94 3c 00 	jmp	0x78	; 0x78 <__bad_interrupt>
  10:	0c 94 3c 00 	jmp	0x78	; 0x78 <__bad_interrupt>
  14:	0c 94 3c 00 	jmp	0x78	; 0x78 <__bad_interrupt>
  18:	0c 94 3c 00 	jmp	0x78	; 0x78 <__bad_interrupt>
  1c:	0c 94 3c 00 	jmp	0x78	; 0x78 <__bad_interrupt>
  20:	0c 94 3c 00 	jmp	0x78	; 0x78 <__bad_interrupt>
  24:	0c 94 3c 00 	jmp	0x78	; 0x78 <__bad_interrupt>
  28:	0c 94 3c 00 	jmp	0x78	; 0x78 <__bad_interrupt>
  2c:	0c 94 3c 00 	jmp	0x78	; 0x78 <__bad_interrupt>
  30:	0c 94 01 05 	jmp	0xa02	; 0xa02 <__vector_12>
  34:	0c 94 3c 00 	jmp	0x78	; 0x78 <__bad_interrupt>
  38:	0c 94 3c 00 	jmp	0x78	; 0x78 <__bad_interrupt>
  3c:	0c 94 3c 00 	jmp	0x78	; 0x78 <__bad_interrupt>
  40:	0c 94 3c 00 	jmp	0x78	; 0x78 <__bad_interrupt>
  44:	0c 94 3c 00 	jmp	0x78	; 0x78 <__bad_interrupt>
  48:	0c 94 3c 00 	jmp	0x78	; 0x78 <__bad_interrupt>
  4c:	0c 94 3c 00 	jmp	0x78	; 0x78 <__bad_interrupt>
  50:	0c 94 3c 00 	jmp	0x78	; 0x78 <__bad_interrupt>

00000054 <__ctors_end>:
  54:	11 24       	eor	r1, r1
  56:	1f be       	out	0x3f, r1	; 63
  58:	cf e5       	ldi	r28, 0x5F	; 95
  5a:	d8 e0       	ldi	r29, 0x08	; 8
  5c:	de bf       	out	0x3e, r29	; 62
  5e:	cd bf       	out	0x3d, r28	; 61

00000060 <__do_clear_bss>:
  60:	10 e0       	ldi	r17, 0x00	; 0
  62:	a0 e6       	ldi	r26, 0x60	; 96
  64:	b0 e0       	ldi	r27, 0x00	; 0
  66:	01 c0       	rjmp	.+2      	; 0x6a <.do_clear_bss_start>

00000068 <.do_clear_bss_loop>:
  68:	1d 92       	st	X+, r1

0000006a <.do_clear_bss_start>:
  6a:	a3 36       	cpi	r26, 0x63	; 99
  6c:	b1 07       	cpc	r27, r17
  6e:	e1 f7       	brne	.-8      	; 0x68 <.do_clear_bss_loop>
  70:	0e 94 44 05 	call	0xa88	; 0xa88 <main>
  74:	0c 94 82 05 	jmp	0xb04	; 0xb04 <_exit>

00000078 <__bad_interrupt>:
  78:	0c 94 00 00 	jmp	0	; 0x0 <__vectors>

0000007c <DIO_VidSetPortDirection>:





void DIO_VidSetPortDirection( u8 Copy_U8Port, u8 Copy_U8Direction){
  7c:	df 93       	push	r29
  7e:	cf 93       	push	r28
  80:	00 d0       	rcall	.+0      	; 0x82 <DIO_VidSetPortDirection+0x6>
  82:	00 d0       	rcall	.+0      	; 0x84 <DIO_VidSetPortDirection+0x8>
  84:	00 d0       	rcall	.+0      	; 0x86 <DIO_VidSetPortDirection+0xa>
  86:	cd b7       	in	r28, 0x3d	; 61
  88:	de b7       	in	r29, 0x3e	; 62
  8a:	89 83       	std	Y+1, r24	; 0x01
  8c:	6a 83       	std	Y+2, r22	; 0x02

	if (Copy_U8Direction==OUTPUT){
  8e:	8a 81       	ldd	r24, Y+2	; 0x02
  90:	81 30       	cpi	r24, 0x01	; 1
  92:	99 f5       	brne	.+102    	; 0xfa <DIO_VidSetPortDirection+0x7e>

		switch(Copy_U8Port){
  94:	89 81       	ldd	r24, Y+1	; 0x01
  96:	28 2f       	mov	r18, r24
  98:	30 e0       	ldi	r19, 0x00	; 0
  9a:	3e 83       	std	Y+6, r19	; 0x06
  9c:	2d 83       	std	Y+5, r18	; 0x05
  9e:	8d 81       	ldd	r24, Y+5	; 0x05
  a0:	9e 81       	ldd	r25, Y+6	; 0x06
  a2:	81 30       	cpi	r24, 0x01	; 1
  a4:	91 05       	cpc	r25, r1
  a6:	d1 f0       	breq	.+52     	; 0xdc <DIO_VidSetPortDirection+0x60>
  a8:	2d 81       	ldd	r18, Y+5	; 0x05
  aa:	3e 81       	ldd	r19, Y+6	; 0x06
  ac:	22 30       	cpi	r18, 0x02	; 2
  ae:	31 05       	cpc	r19, r1
  b0:	2c f4       	brge	.+10     	; 0xbc <DIO_VidSetPortDirection+0x40>
  b2:	8d 81       	ldd	r24, Y+5	; 0x05
  b4:	9e 81       	ldd	r25, Y+6	; 0x06
  b6:	00 97       	sbiw	r24, 0x00	; 0
  b8:	61 f0       	breq	.+24     	; 0xd2 <DIO_VidSetPortDirection+0x56>
  ba:	50 c0       	rjmp	.+160    	; 0x15c <DIO_VidSetPortDirection+0xe0>
  bc:	2d 81       	ldd	r18, Y+5	; 0x05
  be:	3e 81       	ldd	r19, Y+6	; 0x06
  c0:	22 30       	cpi	r18, 0x02	; 2
  c2:	31 05       	cpc	r19, r1
  c4:	81 f0       	breq	.+32     	; 0xe6 <DIO_VidSetPortDirection+0x6a>
  c6:	8d 81       	ldd	r24, Y+5	; 0x05
  c8:	9e 81       	ldd	r25, Y+6	; 0x06
  ca:	83 30       	cpi	r24, 0x03	; 3
  cc:	91 05       	cpc	r25, r1
  ce:	81 f0       	breq	.+32     	; 0xf0 <DIO_VidSetPortDirection+0x74>
  d0:	45 c0       	rjmp	.+138    	; 0x15c <DIO_VidSetPortDirection+0xe0>

		case PORTA_NUM :		DDRA=0xff;	break;
  d2:	ea e3       	ldi	r30, 0x3A	; 58
  d4:	f0 e0       	ldi	r31, 0x00	; 0
  d6:	8f ef       	ldi	r24, 0xFF	; 255
  d8:	80 83       	st	Z, r24
  da:	40 c0       	rjmp	.+128    	; 0x15c <DIO_VidSetPortDirection+0xe0>
		case PORTB_NUM :		DDRB=0xff;  break;
  dc:	e7 e3       	ldi	r30, 0x37	; 55
  de:	f0 e0       	ldi	r31, 0x00	; 0
  e0:	8f ef       	ldi	r24, 0xFF	; 255
  e2:	80 83       	st	Z, r24
  e4:	3b c0       	rjmp	.+118    	; 0x15c <DIO_VidSetPortDirection+0xe0>
		case PORTC_NUM :		DDRC=0xff;; break;
  e6:	e4 e3       	ldi	r30, 0x34	; 52
  e8:	f0 e0       	ldi	r31, 0x00	; 0
  ea:	8f ef       	ldi	r24, 0xFF	; 255
  ec:	80 83       	st	Z, r24
  ee:	36 c0       	rjmp	.+108    	; 0x15c <DIO_VidSetPortDirection+0xe0>
		case PORTD_NUM :		DDRD=0xff;  break;
  f0:	e1 e3       	ldi	r30, 0x31	; 49
  f2:	f0 e0       	ldi	r31, 0x00	; 0
  f4:	8f ef       	ldi	r24, 0xFF	; 255
  f6:	80 83       	st	Z, r24
  f8:	31 c0       	rjmp	.+98     	; 0x15c <DIO_VidSetPortDirection+0xe0>


	}


	else if  (Copy_U8Direction==INPUT){
  fa:	8a 81       	ldd	r24, Y+2	; 0x02
  fc:	88 23       	and	r24, r24
  fe:	71 f5       	brne	.+92     	; 0x15c <DIO_VidSetPortDirection+0xe0>


		switch(Copy_U8Port){
 100:	89 81       	ldd	r24, Y+1	; 0x01
 102:	28 2f       	mov	r18, r24
 104:	30 e0       	ldi	r19, 0x00	; 0
 106:	3c 83       	std	Y+4, r19	; 0x04
 108:	2b 83       	std	Y+3, r18	; 0x03
 10a:	8b 81       	ldd	r24, Y+3	; 0x03
 10c:	9c 81       	ldd	r25, Y+4	; 0x04
 10e:	81 30       	cpi	r24, 0x01	; 1
 110:	91 05       	cpc	r25, r1
 112:	c9 f0       	breq	.+50     	; 0x146 <DIO_VidSetPortDirection+0xca>
 114:	2b 81       	ldd	r18, Y+3	; 0x03
 116:	3c 81       	ldd	r19, Y+4	; 0x04
 118:	22 30       	cpi	r18, 0x02	; 2
 11a:	31 05       	cpc	r19, r1
 11c:	2c f4       	brge	.+10     	; 0x128 <DIO_VidSetPortDirection+0xac>
 11e:	8b 81       	ldd	r24, Y+3	; 0x03
 120:	9c 81       	ldd	r25, Y+4	; 0x04
 122:	00 97       	sbiw	r24, 0x00	; 0
 124:	61 f0       	breq	.+24     	; 0x13e <DIO_VidSetPortDirection+0xc2>
 126:	1a c0       	rjmp	.+52     	; 0x15c <DIO_VidSetPortDirection+0xe0>
 128:	2b 81       	ldd	r18, Y+3	; 0x03
 12a:	3c 81       	ldd	r19, Y+4	; 0x04
 12c:	22 30       	cpi	r18, 0x02	; 2
 12e:	31 05       	cpc	r19, r1
 130:	71 f0       	breq	.+28     	; 0x14e <DIO_VidSetPortDirection+0xd2>
 132:	8b 81       	ldd	r24, Y+3	; 0x03
 134:	9c 81       	ldd	r25, Y+4	; 0x04
 136:	83 30       	cpi	r24, 0x03	; 3
 138:	91 05       	cpc	r25, r1
 13a:	69 f0       	breq	.+26     	; 0x156 <DIO_VidSetPortDirection+0xda>
 13c:	0f c0       	rjmp	.+30     	; 0x15c <DIO_VidSetPortDirection+0xe0>
		case PORTA_NUM :		DDRA=0x00; break;
 13e:	ea e3       	ldi	r30, 0x3A	; 58
 140:	f0 e0       	ldi	r31, 0x00	; 0
 142:	10 82       	st	Z, r1
 144:	0b c0       	rjmp	.+22     	; 0x15c <DIO_VidSetPortDirection+0xe0>
		case PORTB_NUM :		DDRB=0x00; break;
 146:	e7 e3       	ldi	r30, 0x37	; 55
 148:	f0 e0       	ldi	r31, 0x00	; 0
 14a:	10 82       	st	Z, r1
 14c:	07 c0       	rjmp	.+14     	; 0x15c <DIO_VidSetPortDirection+0xe0>
		case PORTC_NUM :		DDRC=0x00; break;
 14e:	e4 e3       	ldi	r30, 0x34	; 52
 150:	f0 e0       	ldi	r31, 0x00	; 0
 152:	10 82       	st	Z, r1
 154:	03 c0       	rjmp	.+6      	; 0x15c <DIO_VidSetPortDirection+0xe0>
		case PORTD_NUM :		DDRD=0x00; break;
 156:	e1 e3       	ldi	r30, 0x31	; 49
 158:	f0 e0       	ldi	r31, 0x00	; 0
 15a:	10 82       	st	Z, r1

	}



}
 15c:	26 96       	adiw	r28, 0x06	; 6
 15e:	0f b6       	in	r0, 0x3f	; 63
 160:	f8 94       	cli
 162:	de bf       	out	0x3e, r29	; 62
 164:	0f be       	out	0x3f, r0	; 63
 166:	cd bf       	out	0x3d, r28	; 61
 168:	cf 91       	pop	r28
 16a:	df 91       	pop	r29
 16c:	08 95       	ret

0000016e <DIO_VidSetPortValue>:


void DIO_VidSetPortValue(u8 Copy_U8Port,u8 Copy_U8Value){
 16e:	df 93       	push	r29
 170:	cf 93       	push	r28
 172:	00 d0       	rcall	.+0      	; 0x174 <DIO_VidSetPortValue+0x6>
 174:	00 d0       	rcall	.+0      	; 0x176 <DIO_VidSetPortValue+0x8>
 176:	cd b7       	in	r28, 0x3d	; 61
 178:	de b7       	in	r29, 0x3e	; 62
 17a:	89 83       	std	Y+1, r24	; 0x01
 17c:	6a 83       	std	Y+2, r22	; 0x02

	switch(Copy_U8Port){
 17e:	89 81       	ldd	r24, Y+1	; 0x01
 180:	28 2f       	mov	r18, r24
 182:	30 e0       	ldi	r19, 0x00	; 0
 184:	3c 83       	std	Y+4, r19	; 0x04
 186:	2b 83       	std	Y+3, r18	; 0x03
 188:	8b 81       	ldd	r24, Y+3	; 0x03
 18a:	9c 81       	ldd	r25, Y+4	; 0x04
 18c:	81 30       	cpi	r24, 0x01	; 1
 18e:	91 05       	cpc	r25, r1
 190:	d1 f0       	breq	.+52     	; 0x1c6 <DIO_VidSetPortValue+0x58>
 192:	2b 81       	ldd	r18, Y+3	; 0x03
 194:	3c 81       	ldd	r19, Y+4	; 0x04
 196:	22 30       	cpi	r18, 0x02	; 2
 198:	31 05       	cpc	r19, r1
 19a:	2c f4       	brge	.+10     	; 0x1a6 <DIO_VidSetPortValue+0x38>
 19c:	8b 81       	ldd	r24, Y+3	; 0x03
 19e:	9c 81       	ldd	r25, Y+4	; 0x04
 1a0:	00 97       	sbiw	r24, 0x00	; 0
 1a2:	61 f0       	breq	.+24     	; 0x1bc <DIO_VidSetPortValue+0x4e>
 1a4:	1e c0       	rjmp	.+60     	; 0x1e2 <DIO_VidSetPortValue+0x74>
 1a6:	2b 81       	ldd	r18, Y+3	; 0x03
 1a8:	3c 81       	ldd	r19, Y+4	; 0x04
 1aa:	22 30       	cpi	r18, 0x02	; 2
 1ac:	31 05       	cpc	r19, r1
 1ae:	81 f0       	breq	.+32     	; 0x1d0 <DIO_VidSetPortValue+0x62>
 1b0:	8b 81       	ldd	r24, Y+3	; 0x03
 1b2:	9c 81       	ldd	r25, Y+4	; 0x04
 1b4:	83 30       	cpi	r24, 0x03	; 3
 1b6:	91 05       	cpc	r25, r1
 1b8:	81 f0       	breq	.+32     	; 0x1da <DIO_VidSetPortValue+0x6c>
 1ba:	13 c0       	rjmp	.+38     	; 0x1e2 <DIO_VidSetPortValue+0x74>

		case PORTA_NUM :		PORTA=Copy_U8Value;				break;
 1bc:	eb e3       	ldi	r30, 0x3B	; 59
 1be:	f0 e0       	ldi	r31, 0x00	; 0
 1c0:	8a 81       	ldd	r24, Y+2	; 0x02
 1c2:	80 83       	st	Z, r24
 1c4:	0e c0       	rjmp	.+28     	; 0x1e2 <DIO_VidSetPortValue+0x74>
		case PORTB_NUM :		PORTB=Copy_U8Value; 		    break;
 1c6:	e8 e3       	ldi	r30, 0x38	; 56
 1c8:	f0 e0       	ldi	r31, 0x00	; 0
 1ca:	8a 81       	ldd	r24, Y+2	; 0x02
 1cc:	80 83       	st	Z, r24
 1ce:	09 c0       	rjmp	.+18     	; 0x1e2 <DIO_VidSetPortValue+0x74>
		case PORTC_NUM :		PORTC=Copy_U8Value;			    break;
 1d0:	e5 e3       	ldi	r30, 0x35	; 53
 1d2:	f0 e0       	ldi	r31, 0x00	; 0
 1d4:	8a 81       	ldd	r24, Y+2	; 0x02
 1d6:	80 83       	st	Z, r24
 1d8:	04 c0       	rjmp	.+8      	; 0x1e2 <DIO_VidSetPortValue+0x74>
		case PORTD_NUM :		PORTD=Copy_U8Value;			    break;
 1da:	e2 e3       	ldi	r30, 0x32	; 50
 1dc:	f0 e0       	ldi	r31, 0x00	; 0
 1de:	8a 81       	ldd	r24, Y+2	; 0x02
 1e0:	80 83       	st	Z, r24

		}



}
 1e2:	0f 90       	pop	r0
 1e4:	0f 90       	pop	r0
 1e6:	0f 90       	pop	r0
 1e8:	0f 90       	pop	r0
 1ea:	cf 91       	pop	r28
 1ec:	df 91       	pop	r29
 1ee:	08 95       	ret

000001f0 <DIO_VidSetPinDirection>:


void DIO_VidSetPinDirection(u8 Copy_U8Port,u8 Copy_U8PinNum,u8 Copy_U8Direction){
 1f0:	df 93       	push	r29
 1f2:	cf 93       	push	r28
 1f4:	cd b7       	in	r28, 0x3d	; 61
 1f6:	de b7       	in	r29, 0x3e	; 62
 1f8:	27 97       	sbiw	r28, 0x07	; 7
 1fa:	0f b6       	in	r0, 0x3f	; 63
 1fc:	f8 94       	cli
 1fe:	de bf       	out	0x3e, r29	; 62
 200:	0f be       	out	0x3f, r0	; 63
 202:	cd bf       	out	0x3d, r28	; 61
 204:	89 83       	std	Y+1, r24	; 0x01
 206:	6a 83       	std	Y+2, r22	; 0x02
 208:	4b 83       	std	Y+3, r20	; 0x03

	if (Copy_U8Direction==OUTPUT){
 20a:	8b 81       	ldd	r24, Y+3	; 0x03
 20c:	81 30       	cpi	r24, 0x01	; 1
 20e:	09 f0       	breq	.+2      	; 0x212 <DIO_VidSetPinDirection+0x22>
 210:	6f c0       	rjmp	.+222    	; 0x2f0 <DIO_VidSetPinDirection+0x100>

		switch(Copy_U8Port){
 212:	89 81       	ldd	r24, Y+1	; 0x01
 214:	28 2f       	mov	r18, r24
 216:	30 e0       	ldi	r19, 0x00	; 0
 218:	3f 83       	std	Y+7, r19	; 0x07
 21a:	2e 83       	std	Y+6, r18	; 0x06
 21c:	8e 81       	ldd	r24, Y+6	; 0x06
 21e:	9f 81       	ldd	r25, Y+7	; 0x07
 220:	81 30       	cpi	r24, 0x01	; 1
 222:	91 05       	cpc	r25, r1
 224:	49 f1       	breq	.+82     	; 0x278 <DIO_VidSetPinDirection+0x88>
 226:	2e 81       	ldd	r18, Y+6	; 0x06
 228:	3f 81       	ldd	r19, Y+7	; 0x07
 22a:	22 30       	cpi	r18, 0x02	; 2
 22c:	31 05       	cpc	r19, r1
 22e:	2c f4       	brge	.+10     	; 0x23a <DIO_VidSetPinDirection+0x4a>
 230:	8e 81       	ldd	r24, Y+6	; 0x06
 232:	9f 81       	ldd	r25, Y+7	; 0x07
 234:	00 97       	sbiw	r24, 0x00	; 0
 236:	61 f0       	breq	.+24     	; 0x250 <DIO_VidSetPinDirection+0x60>
 238:	d2 c0       	rjmp	.+420    	; 0x3de <DIO_VidSetPinDirection+0x1ee>
 23a:	2e 81       	ldd	r18, Y+6	; 0x06
 23c:	3f 81       	ldd	r19, Y+7	; 0x07
 23e:	22 30       	cpi	r18, 0x02	; 2
 240:	31 05       	cpc	r19, r1
 242:	71 f1       	breq	.+92     	; 0x2a0 <DIO_VidSetPinDirection+0xb0>
 244:	8e 81       	ldd	r24, Y+6	; 0x06
 246:	9f 81       	ldd	r25, Y+7	; 0x07
 248:	83 30       	cpi	r24, 0x03	; 3
 24a:	91 05       	cpc	r25, r1
 24c:	e9 f1       	breq	.+122    	; 0x2c8 <DIO_VidSetPinDirection+0xd8>
 24e:	c7 c0       	rjmp	.+398    	; 0x3de <DIO_VidSetPinDirection+0x1ee>

		case PORTA_NUM :		SET_BIT(DDRA,Copy_U8PinNum);	break;
 250:	aa e3       	ldi	r26, 0x3A	; 58
 252:	b0 e0       	ldi	r27, 0x00	; 0
 254:	ea e3       	ldi	r30, 0x3A	; 58
 256:	f0 e0       	ldi	r31, 0x00	; 0
 258:	80 81       	ld	r24, Z
 25a:	48 2f       	mov	r20, r24
 25c:	8a 81       	ldd	r24, Y+2	; 0x02
 25e:	28 2f       	mov	r18, r24
 260:	30 e0       	ldi	r19, 0x00	; 0
 262:	81 e0       	ldi	r24, 0x01	; 1
 264:	90 e0       	ldi	r25, 0x00	; 0
 266:	02 2e       	mov	r0, r18
 268:	02 c0       	rjmp	.+4      	; 0x26e <DIO_VidSetPinDirection+0x7e>
 26a:	88 0f       	add	r24, r24
 26c:	99 1f       	adc	r25, r25
 26e:	0a 94       	dec	r0
 270:	e2 f7       	brpl	.-8      	; 0x26a <DIO_VidSetPinDirection+0x7a>
 272:	84 2b       	or	r24, r20
 274:	8c 93       	st	X, r24
 276:	b3 c0       	rjmp	.+358    	; 0x3de <DIO_VidSetPinDirection+0x1ee>
		case PORTB_NUM :		SET_BIT(DDRB,Copy_U8PinNum);	break;
 278:	a7 e3       	ldi	r26, 0x37	; 55
 27a:	b0 e0       	ldi	r27, 0x00	; 0
 27c:	e7 e3       	ldi	r30, 0x37	; 55
 27e:	f0 e0       	ldi	r31, 0x00	; 0
 280:	80 81       	ld	r24, Z
 282:	48 2f       	mov	r20, r24
 284:	8a 81       	ldd	r24, Y+2	; 0x02
 286:	28 2f       	mov	r18, r24
 288:	30 e0       	ldi	r19, 0x00	; 0
 28a:	81 e0       	ldi	r24, 0x01	; 1
 28c:	90 e0       	ldi	r25, 0x00	; 0
 28e:	02 2e       	mov	r0, r18
 290:	02 c0       	rjmp	.+4      	; 0x296 <DIO_VidSetPinDirection+0xa6>
 292:	88 0f       	add	r24, r24
 294:	99 1f       	adc	r25, r25
 296:	0a 94       	dec	r0
 298:	e2 f7       	brpl	.-8      	; 0x292 <DIO_VidSetPinDirection+0xa2>
 29a:	84 2b       	or	r24, r20
 29c:	8c 93       	st	X, r24
 29e:	9f c0       	rjmp	.+318    	; 0x3de <DIO_VidSetPinDirection+0x1ee>
		case PORTC_NUM :		SET_BIT(DDRC,Copy_U8PinNum);	break;
 2a0:	a4 e3       	ldi	r26, 0x34	; 52
 2a2:	b0 e0       	ldi	r27, 0x00	; 0
 2a4:	e4 e3       	ldi	r30, 0x34	; 52
 2a6:	f0 e0       	ldi	r31, 0x00	; 0
 2a8:	80 81       	ld	r24, Z
 2aa:	48 2f       	mov	r20, r24
 2ac:	8a 81       	ldd	r24, Y+2	; 0x02
 2ae:	28 2f       	mov	r18, r24
 2b0:	30 e0       	ldi	r19, 0x00	; 0
 2b2:	81 e0       	ldi	r24, 0x01	; 1
 2b4:	90 e0       	ldi	r25, 0x00	; 0
 2b6:	02 2e       	mov	r0, r18
 2b8:	02 c0       	rjmp	.+4      	; 0x2be <DIO_VidSetPinDirection+0xce>
 2ba:	88 0f       	add	r24, r24
 2bc:	99 1f       	adc	r25, r25
 2be:	0a 94       	dec	r0
 2c0:	e2 f7       	brpl	.-8      	; 0x2ba <DIO_VidSetPinDirection+0xca>
 2c2:	84 2b       	or	r24, r20
 2c4:	8c 93       	st	X, r24
 2c6:	8b c0       	rjmp	.+278    	; 0x3de <DIO_VidSetPinDirection+0x1ee>
		case PORTD_NUM :		SET_BIT(DDRD,Copy_U8PinNum);	break;
 2c8:	a1 e3       	ldi	r26, 0x31	; 49
 2ca:	b0 e0       	ldi	r27, 0x00	; 0
 2cc:	e1 e3       	ldi	r30, 0x31	; 49
 2ce:	f0 e0       	ldi	r31, 0x00	; 0
 2d0:	80 81       	ld	r24, Z
 2d2:	48 2f       	mov	r20, r24
 2d4:	8a 81       	ldd	r24, Y+2	; 0x02
 2d6:	28 2f       	mov	r18, r24
 2d8:	30 e0       	ldi	r19, 0x00	; 0
 2da:	81 e0       	ldi	r24, 0x01	; 1
 2dc:	90 e0       	ldi	r25, 0x00	; 0
 2de:	02 2e       	mov	r0, r18
 2e0:	02 c0       	rjmp	.+4      	; 0x2e6 <DIO_VidSetPinDirection+0xf6>
 2e2:	88 0f       	add	r24, r24
 2e4:	99 1f       	adc	r25, r25
 2e6:	0a 94       	dec	r0
 2e8:	e2 f7       	brpl	.-8      	; 0x2e2 <DIO_VidSetPinDirection+0xf2>
 2ea:	84 2b       	or	r24, r20
 2ec:	8c 93       	st	X, r24
 2ee:	77 c0       	rjmp	.+238    	; 0x3de <DIO_VidSetPinDirection+0x1ee>


	}


	else if  (Copy_U8Direction==INPUT){
 2f0:	8b 81       	ldd	r24, Y+3	; 0x03
 2f2:	88 23       	and	r24, r24
 2f4:	09 f0       	breq	.+2      	; 0x2f8 <DIO_VidSetPinDirection+0x108>
 2f6:	73 c0       	rjmp	.+230    	; 0x3de <DIO_VidSetPinDirection+0x1ee>


		switch(Copy_U8Port){
 2f8:	89 81       	ldd	r24, Y+1	; 0x01
 2fa:	28 2f       	mov	r18, r24
 2fc:	30 e0       	ldi	r19, 0x00	; 0
 2fe:	3d 83       	std	Y+5, r19	; 0x05
 300:	2c 83       	std	Y+4, r18	; 0x04
 302:	8c 81       	ldd	r24, Y+4	; 0x04
 304:	9d 81       	ldd	r25, Y+5	; 0x05
 306:	81 30       	cpi	r24, 0x01	; 1
 308:	91 05       	cpc	r25, r1
 30a:	59 f1       	breq	.+86     	; 0x362 <DIO_VidSetPinDirection+0x172>
 30c:	2c 81       	ldd	r18, Y+4	; 0x04
 30e:	3d 81       	ldd	r19, Y+5	; 0x05
 310:	22 30       	cpi	r18, 0x02	; 2
 312:	31 05       	cpc	r19, r1
 314:	2c f4       	brge	.+10     	; 0x320 <DIO_VidSetPinDirection+0x130>
 316:	8c 81       	ldd	r24, Y+4	; 0x04
 318:	9d 81       	ldd	r25, Y+5	; 0x05
 31a:	00 97       	sbiw	r24, 0x00	; 0
 31c:	69 f0       	breq	.+26     	; 0x338 <DIO_VidSetPinDirection+0x148>
 31e:	5f c0       	rjmp	.+190    	; 0x3de <DIO_VidSetPinDirection+0x1ee>
 320:	2c 81       	ldd	r18, Y+4	; 0x04
 322:	3d 81       	ldd	r19, Y+5	; 0x05
 324:	22 30       	cpi	r18, 0x02	; 2
 326:	31 05       	cpc	r19, r1
 328:	89 f1       	breq	.+98     	; 0x38c <DIO_VidSetPinDirection+0x19c>
 32a:	8c 81       	ldd	r24, Y+4	; 0x04
 32c:	9d 81       	ldd	r25, Y+5	; 0x05
 32e:	83 30       	cpi	r24, 0x03	; 3
 330:	91 05       	cpc	r25, r1
 332:	09 f4       	brne	.+2      	; 0x336 <DIO_VidSetPinDirection+0x146>
 334:	40 c0       	rjmp	.+128    	; 0x3b6 <DIO_VidSetPinDirection+0x1c6>
 336:	53 c0       	rjmp	.+166    	; 0x3de <DIO_VidSetPinDirection+0x1ee>
		case PORTA_NUM :		CLEAR_BIT(DDRA,Copy_U8PinNum);	break;
 338:	aa e3       	ldi	r26, 0x3A	; 58
 33a:	b0 e0       	ldi	r27, 0x00	; 0
 33c:	ea e3       	ldi	r30, 0x3A	; 58
 33e:	f0 e0       	ldi	r31, 0x00	; 0
 340:	80 81       	ld	r24, Z
 342:	48 2f       	mov	r20, r24
 344:	8a 81       	ldd	r24, Y+2	; 0x02
 346:	28 2f       	mov	r18, r24
 348:	30 e0       	ldi	r19, 0x00	; 0
 34a:	81 e0       	ldi	r24, 0x01	; 1
 34c:	90 e0       	ldi	r25, 0x00	; 0
 34e:	02 2e       	mov	r0, r18
 350:	02 c0       	rjmp	.+4      	; 0x356 <DIO_VidSetPinDirection+0x166>
 352:	88 0f       	add	r24, r24
 354:	99 1f       	adc	r25, r25
 356:	0a 94       	dec	r0
 358:	e2 f7       	brpl	.-8      	; 0x352 <DIO_VidSetPinDirection+0x162>
 35a:	80 95       	com	r24
 35c:	84 23       	and	r24, r20
 35e:	8c 93       	st	X, r24
 360:	3e c0       	rjmp	.+124    	; 0x3de <DIO_VidSetPinDirection+0x1ee>
		case PORTB_NUM :		CLEAR_BIT(DDRB,Copy_U8PinNum);	break;
 362:	a7 e3       	ldi	r26, 0x37	; 55
 364:	b0 e0       	ldi	r27, 0x00	; 0
 366:	e7 e3       	ldi	r30, 0x37	; 55
 368:	f0 e0       	ldi	r31, 0x00	; 0
 36a:	80 81       	ld	r24, Z
 36c:	48 2f       	mov	r20, r24
 36e:	8a 81       	ldd	r24, Y+2	; 0x02
 370:	28 2f       	mov	r18, r24
 372:	30 e0       	ldi	r19, 0x00	; 0
 374:	81 e0       	ldi	r24, 0x01	; 1
 376:	90 e0       	ldi	r25, 0x00	; 0
 378:	02 2e       	mov	r0, r18
 37a:	02 c0       	rjmp	.+4      	; 0x380 <DIO_VidSetPinDirection+0x190>
 37c:	88 0f       	add	r24, r24
 37e:	99 1f       	adc	r25, r25
 380:	0a 94       	dec	r0
 382:	e2 f7       	brpl	.-8      	; 0x37c <DIO_VidSetPinDirection+0x18c>
 384:	80 95       	com	r24
 386:	84 23       	and	r24, r20
 388:	8c 93       	st	X, r24
 38a:	29 c0       	rjmp	.+82     	; 0x3de <DIO_VidSetPinDirection+0x1ee>
		case PORTC_NUM :		CLEAR_BIT(DDRC,Copy_U8PinNum);	break;
 38c:	a4 e3       	ldi	r26, 0x34	; 52
 38e:	b0 e0       	ldi	r27, 0x00	; 0
 390:	e4 e3       	ldi	r30, 0x34	; 52
 392:	f0 e0       	ldi	r31, 0x00	; 0
 394:	80 81       	ld	r24, Z
 396:	48 2f       	mov	r20, r24
 398:	8a 81       	ldd	r24, Y+2	; 0x02
 39a:	28 2f       	mov	r18, r24
 39c:	30 e0       	ldi	r19, 0x00	; 0
 39e:	81 e0       	ldi	r24, 0x01	; 1
 3a0:	90 e0       	ldi	r25, 0x00	; 0
 3a2:	02 2e       	mov	r0, r18
 3a4:	02 c0       	rjmp	.+4      	; 0x3aa <DIO_VidSetPinDirection+0x1ba>
 3a6:	88 0f       	add	r24, r24
 3a8:	99 1f       	adc	r25, r25
 3aa:	0a 94       	dec	r0
 3ac:	e2 f7       	brpl	.-8      	; 0x3a6 <DIO_VidSetPinDirection+0x1b6>
 3ae:	80 95       	com	r24
 3b0:	84 23       	and	r24, r20
 3b2:	8c 93       	st	X, r24
 3b4:	14 c0       	rjmp	.+40     	; 0x3de <DIO_VidSetPinDirection+0x1ee>
		case PORTD_NUM :		CLEAR_BIT(DDRD,Copy_U8PinNum);	break;
 3b6:	a1 e3       	ldi	r26, 0x31	; 49
 3b8:	b0 e0       	ldi	r27, 0x00	; 0
 3ba:	e1 e3       	ldi	r30, 0x31	; 49
 3bc:	f0 e0       	ldi	r31, 0x00	; 0
 3be:	80 81       	ld	r24, Z
 3c0:	48 2f       	mov	r20, r24
 3c2:	8a 81       	ldd	r24, Y+2	; 0x02
 3c4:	28 2f       	mov	r18, r24
 3c6:	30 e0       	ldi	r19, 0x00	; 0
 3c8:	81 e0       	ldi	r24, 0x01	; 1
 3ca:	90 e0       	ldi	r25, 0x00	; 0
 3cc:	02 2e       	mov	r0, r18
 3ce:	02 c0       	rjmp	.+4      	; 0x3d4 <DIO_VidSetPinDirection+0x1e4>
 3d0:	88 0f       	add	r24, r24
 3d2:	99 1f       	adc	r25, r25
 3d4:	0a 94       	dec	r0
 3d6:	e2 f7       	brpl	.-8      	; 0x3d0 <DIO_VidSetPinDirection+0x1e0>
 3d8:	80 95       	com	r24
 3da:	84 23       	and	r24, r20
 3dc:	8c 93       	st	X, r24
		}

	}

}
 3de:	27 96       	adiw	r28, 0x07	; 7
 3e0:	0f b6       	in	r0, 0x3f	; 63
 3e2:	f8 94       	cli
 3e4:	de bf       	out	0x3e, r29	; 62
 3e6:	0f be       	out	0x3f, r0	; 63
 3e8:	cd bf       	out	0x3d, r28	; 61
 3ea:	cf 91       	pop	r28
 3ec:	df 91       	pop	r29
 3ee:	08 95       	ret

000003f0 <DIO_VidSetPinValue>:



void DIO_VidSetPinValue(u8 Copy_U8Port,u8 Copy_U8Pin,u8 Copy_U8PinValue){
 3f0:	df 93       	push	r29
 3f2:	cf 93       	push	r28
 3f4:	cd b7       	in	r28, 0x3d	; 61
 3f6:	de b7       	in	r29, 0x3e	; 62
 3f8:	27 97       	sbiw	r28, 0x07	; 7
 3fa:	0f b6       	in	r0, 0x3f	; 63
 3fc:	f8 94       	cli
 3fe:	de bf       	out	0x3e, r29	; 62
 400:	0f be       	out	0x3f, r0	; 63
 402:	cd bf       	out	0x3d, r28	; 61
 404:	89 83       	std	Y+1, r24	; 0x01
 406:	6a 83       	std	Y+2, r22	; 0x02
 408:	4b 83       	std	Y+3, r20	; 0x03
if (Copy_U8PinValue == HIGH){
 40a:	8b 81       	ldd	r24, Y+3	; 0x03
 40c:	81 30       	cpi	r24, 0x01	; 1
 40e:	09 f0       	breq	.+2      	; 0x412 <DIO_VidSetPinValue+0x22>
 410:	6f c0       	rjmp	.+222    	; 0x4f0 <DIO_VidSetPinValue+0x100>
	switch(Copy_U8Port){
 412:	89 81       	ldd	r24, Y+1	; 0x01
 414:	28 2f       	mov	r18, r24
 416:	30 e0       	ldi	r19, 0x00	; 0
 418:	3f 83       	std	Y+7, r19	; 0x07
 41a:	2e 83       	std	Y+6, r18	; 0x06
 41c:	8e 81       	ldd	r24, Y+6	; 0x06
 41e:	9f 81       	ldd	r25, Y+7	; 0x07
 420:	81 30       	cpi	r24, 0x01	; 1
 422:	91 05       	cpc	r25, r1
 424:	49 f1       	breq	.+82     	; 0x478 <DIO_VidSetPinValue+0x88>
 426:	2e 81       	ldd	r18, Y+6	; 0x06
 428:	3f 81       	ldd	r19, Y+7	; 0x07
 42a:	22 30       	cpi	r18, 0x02	; 2
 42c:	31 05       	cpc	r19, r1
 42e:	2c f4       	brge	.+10     	; 0x43a <DIO_VidSetPinValue+0x4a>
 430:	8e 81       	ldd	r24, Y+6	; 0x06
 432:	9f 81       	ldd	r25, Y+7	; 0x07
 434:	00 97       	sbiw	r24, 0x00	; 0
 436:	61 f0       	breq	.+24     	; 0x450 <DIO_VidSetPinValue+0x60>
 438:	d2 c0       	rjmp	.+420    	; 0x5de <DIO_VidSetPinValue+0x1ee>
 43a:	2e 81       	ldd	r18, Y+6	; 0x06
 43c:	3f 81       	ldd	r19, Y+7	; 0x07
 43e:	22 30       	cpi	r18, 0x02	; 2
 440:	31 05       	cpc	r19, r1
 442:	71 f1       	breq	.+92     	; 0x4a0 <DIO_VidSetPinValue+0xb0>
 444:	8e 81       	ldd	r24, Y+6	; 0x06
 446:	9f 81       	ldd	r25, Y+7	; 0x07
 448:	83 30       	cpi	r24, 0x03	; 3
 44a:	91 05       	cpc	r25, r1
 44c:	e9 f1       	breq	.+122    	; 0x4c8 <DIO_VidSetPinValue+0xd8>
 44e:	c7 c0       	rjmp	.+398    	; 0x5de <DIO_VidSetPinValue+0x1ee>

		case PORTA_NUM :		SET_BIT(PORTA,Copy_U8Pin);	        	break;
 450:	ab e3       	ldi	r26, 0x3B	; 59
 452:	b0 e0       	ldi	r27, 0x00	; 0
 454:	eb e3       	ldi	r30, 0x3B	; 59
 456:	f0 e0       	ldi	r31, 0x00	; 0
 458:	80 81       	ld	r24, Z
 45a:	48 2f       	mov	r20, r24
 45c:	8a 81       	ldd	r24, Y+2	; 0x02
 45e:	28 2f       	mov	r18, r24
 460:	30 e0       	ldi	r19, 0x00	; 0
 462:	81 e0       	ldi	r24, 0x01	; 1
 464:	90 e0       	ldi	r25, 0x00	; 0
 466:	02 2e       	mov	r0, r18
 468:	02 c0       	rjmp	.+4      	; 0x46e <DIO_VidSetPinValue+0x7e>
 46a:	88 0f       	add	r24, r24
 46c:	99 1f       	adc	r25, r25
 46e:	0a 94       	dec	r0
 470:	e2 f7       	brpl	.-8      	; 0x46a <DIO_VidSetPinValue+0x7a>
 472:	84 2b       	or	r24, r20
 474:	8c 93       	st	X, r24
 476:	b3 c0       	rjmp	.+358    	; 0x5de <DIO_VidSetPinValue+0x1ee>
		case PORTB_NUM :		SET_BIT(PORTB,Copy_U8Pin); 		        break;
 478:	a8 e3       	ldi	r26, 0x38	; 56
 47a:	b0 e0       	ldi	r27, 0x00	; 0
 47c:	e8 e3       	ldi	r30, 0x38	; 56
 47e:	f0 e0       	ldi	r31, 0x00	; 0
 480:	80 81       	ld	r24, Z
 482:	48 2f       	mov	r20, r24
 484:	8a 81       	ldd	r24, Y+2	; 0x02
 486:	28 2f       	mov	r18, r24
 488:	30 e0       	ldi	r19, 0x00	; 0
 48a:	81 e0       	ldi	r24, 0x01	; 1
 48c:	90 e0       	ldi	r25, 0x00	; 0
 48e:	02 2e       	mov	r0, r18
 490:	02 c0       	rjmp	.+4      	; 0x496 <DIO_VidSetPinValue+0xa6>
 492:	88 0f       	add	r24, r24
 494:	99 1f       	adc	r25, r25
 496:	0a 94       	dec	r0
 498:	e2 f7       	brpl	.-8      	; 0x492 <DIO_VidSetPinValue+0xa2>
 49a:	84 2b       	or	r24, r20
 49c:	8c 93       	st	X, r24
 49e:	9f c0       	rjmp	.+318    	; 0x5de <DIO_VidSetPinValue+0x1ee>
		case PORTC_NUM :		SET_BIT(PORTC,Copy_U8Pin);			    break;
 4a0:	a5 e3       	ldi	r26, 0x35	; 53
 4a2:	b0 e0       	ldi	r27, 0x00	; 0
 4a4:	e5 e3       	ldi	r30, 0x35	; 53
 4a6:	f0 e0       	ldi	r31, 0x00	; 0
 4a8:	80 81       	ld	r24, Z
 4aa:	48 2f       	mov	r20, r24
 4ac:	8a 81       	ldd	r24, Y+2	; 0x02
 4ae:	28 2f       	mov	r18, r24
 4b0:	30 e0       	ldi	r19, 0x00	; 0
 4b2:	81 e0       	ldi	r24, 0x01	; 1
 4b4:	90 e0       	ldi	r25, 0x00	; 0
 4b6:	02 2e       	mov	r0, r18
 4b8:	02 c0       	rjmp	.+4      	; 0x4be <DIO_VidSetPinValue+0xce>
 4ba:	88 0f       	add	r24, r24
 4bc:	99 1f       	adc	r25, r25
 4be:	0a 94       	dec	r0
 4c0:	e2 f7       	brpl	.-8      	; 0x4ba <DIO_VidSetPinValue+0xca>
 4c2:	84 2b       	or	r24, r20
 4c4:	8c 93       	st	X, r24
 4c6:	8b c0       	rjmp	.+278    	; 0x5de <DIO_VidSetPinValue+0x1ee>
		case PORTD_NUM :		SET_BIT(PORTD,Copy_U8Pin);			    break;
 4c8:	a2 e3       	ldi	r26, 0x32	; 50
 4ca:	b0 e0       	ldi	r27, 0x00	; 0
 4cc:	e2 e3       	ldi	r30, 0x32	; 50
 4ce:	f0 e0       	ldi	r31, 0x00	; 0
 4d0:	80 81       	ld	r24, Z
 4d2:	48 2f       	mov	r20, r24
 4d4:	8a 81       	ldd	r24, Y+2	; 0x02
 4d6:	28 2f       	mov	r18, r24
 4d8:	30 e0       	ldi	r19, 0x00	; 0
 4da:	81 e0       	ldi	r24, 0x01	; 1
 4dc:	90 e0       	ldi	r25, 0x00	; 0
 4de:	02 2e       	mov	r0, r18
 4e0:	02 c0       	rjmp	.+4      	; 0x4e6 <DIO_VidSetPinValue+0xf6>
 4e2:	88 0f       	add	r24, r24
 4e4:	99 1f       	adc	r25, r25
 4e6:	0a 94       	dec	r0
 4e8:	e2 f7       	brpl	.-8      	; 0x4e2 <DIO_VidSetPinValue+0xf2>
 4ea:	84 2b       	or	r24, r20
 4ec:	8c 93       	st	X, r24
 4ee:	77 c0       	rjmp	.+238    	; 0x5de <DIO_VidSetPinValue+0x1ee>

		}
}

else if  (Copy_U8PinValue == LOW){
 4f0:	8b 81       	ldd	r24, Y+3	; 0x03
 4f2:	88 23       	and	r24, r24
 4f4:	09 f0       	breq	.+2      	; 0x4f8 <DIO_VidSetPinValue+0x108>
 4f6:	73 c0       	rjmp	.+230    	; 0x5de <DIO_VidSetPinValue+0x1ee>
	switch(Copy_U8Port){
 4f8:	89 81       	ldd	r24, Y+1	; 0x01
 4fa:	28 2f       	mov	r18, r24
 4fc:	30 e0       	ldi	r19, 0x00	; 0
 4fe:	3d 83       	std	Y+5, r19	; 0x05
 500:	2c 83       	std	Y+4, r18	; 0x04
 502:	8c 81       	ldd	r24, Y+4	; 0x04
 504:	9d 81       	ldd	r25, Y+5	; 0x05
 506:	81 30       	cpi	r24, 0x01	; 1
 508:	91 05       	cpc	r25, r1
 50a:	59 f1       	breq	.+86     	; 0x562 <DIO_VidSetPinValue+0x172>
 50c:	2c 81       	ldd	r18, Y+4	; 0x04
 50e:	3d 81       	ldd	r19, Y+5	; 0x05
 510:	22 30       	cpi	r18, 0x02	; 2
 512:	31 05       	cpc	r19, r1
 514:	2c f4       	brge	.+10     	; 0x520 <DIO_VidSetPinValue+0x130>
 516:	8c 81       	ldd	r24, Y+4	; 0x04
 518:	9d 81       	ldd	r25, Y+5	; 0x05
 51a:	00 97       	sbiw	r24, 0x00	; 0
 51c:	69 f0       	breq	.+26     	; 0x538 <DIO_VidSetPinValue+0x148>
 51e:	5f c0       	rjmp	.+190    	; 0x5de <DIO_VidSetPinValue+0x1ee>
 520:	2c 81       	ldd	r18, Y+4	; 0x04
 522:	3d 81       	ldd	r19, Y+5	; 0x05
 524:	22 30       	cpi	r18, 0x02	; 2
 526:	31 05       	cpc	r19, r1
 528:	89 f1       	breq	.+98     	; 0x58c <DIO_VidSetPinValue+0x19c>
 52a:	8c 81       	ldd	r24, Y+4	; 0x04
 52c:	9d 81       	ldd	r25, Y+5	; 0x05
 52e:	83 30       	cpi	r24, 0x03	; 3
 530:	91 05       	cpc	r25, r1
 532:	09 f4       	brne	.+2      	; 0x536 <DIO_VidSetPinValue+0x146>
 534:	40 c0       	rjmp	.+128    	; 0x5b6 <DIO_VidSetPinValue+0x1c6>
 536:	53 c0       	rjmp	.+166    	; 0x5de <DIO_VidSetPinValue+0x1ee>

		case PORTA_NUM :		CLEAR_BIT(PORTA,Copy_U8Pin);	        break;
 538:	ab e3       	ldi	r26, 0x3B	; 59
 53a:	b0 e0       	ldi	r27, 0x00	; 0
 53c:	eb e3       	ldi	r30, 0x3B	; 59
 53e:	f0 e0       	ldi	r31, 0x00	; 0
 540:	80 81       	ld	r24, Z
 542:	48 2f       	mov	r20, r24
 544:	8a 81       	ldd	r24, Y+2	; 0x02
 546:	28 2f       	mov	r18, r24
 548:	30 e0       	ldi	r19, 0x00	; 0
 54a:	81 e0       	ldi	r24, 0x01	; 1
 54c:	90 e0       	ldi	r25, 0x00	; 0
 54e:	02 2e       	mov	r0, r18
 550:	02 c0       	rjmp	.+4      	; 0x556 <DIO_VidSetPinValue+0x166>
 552:	88 0f       	add	r24, r24
 554:	99 1f       	adc	r25, r25
 556:	0a 94       	dec	r0
 558:	e2 f7       	brpl	.-8      	; 0x552 <DIO_VidSetPinValue+0x162>
 55a:	80 95       	com	r24
 55c:	84 23       	and	r24, r20
 55e:	8c 93       	st	X, r24
 560:	3e c0       	rjmp	.+124    	; 0x5de <DIO_VidSetPinValue+0x1ee>
		case PORTB_NUM :		CLEAR_BIT(PORTB,Copy_U8Pin); 		    break;
 562:	a8 e3       	ldi	r26, 0x38	; 56
 564:	b0 e0       	ldi	r27, 0x00	; 0
 566:	e8 e3       	ldi	r30, 0x38	; 56
 568:	f0 e0       	ldi	r31, 0x00	; 0
 56a:	80 81       	ld	r24, Z
 56c:	48 2f       	mov	r20, r24
 56e:	8a 81       	ldd	r24, Y+2	; 0x02
 570:	28 2f       	mov	r18, r24
 572:	30 e0       	ldi	r19, 0x00	; 0
 574:	81 e0       	ldi	r24, 0x01	; 1
 576:	90 e0       	ldi	r25, 0x00	; 0
 578:	02 2e       	mov	r0, r18
 57a:	02 c0       	rjmp	.+4      	; 0x580 <DIO_VidSetPinValue+0x190>
 57c:	88 0f       	add	r24, r24
 57e:	99 1f       	adc	r25, r25
 580:	0a 94       	dec	r0
 582:	e2 f7       	brpl	.-8      	; 0x57c <DIO_VidSetPinValue+0x18c>
 584:	80 95       	com	r24
 586:	84 23       	and	r24, r20
 588:	8c 93       	st	X, r24
 58a:	29 c0       	rjmp	.+82     	; 0x5de <DIO_VidSetPinValue+0x1ee>
		case PORTC_NUM :		CLEAR_BIT(PORTC,Copy_U8Pin);			break;
 58c:	a5 e3       	ldi	r26, 0x35	; 53
 58e:	b0 e0       	ldi	r27, 0x00	; 0
 590:	e5 e3       	ldi	r30, 0x35	; 53
 592:	f0 e0       	ldi	r31, 0x00	; 0
 594:	80 81       	ld	r24, Z
 596:	48 2f       	mov	r20, r24
 598:	8a 81       	ldd	r24, Y+2	; 0x02
 59a:	28 2f       	mov	r18, r24
 59c:	30 e0       	ldi	r19, 0x00	; 0
 59e:	81 e0       	ldi	r24, 0x01	; 1
 5a0:	90 e0       	ldi	r25, 0x00	; 0
 5a2:	02 2e       	mov	r0, r18
 5a4:	02 c0       	rjmp	.+4      	; 0x5aa <DIO_VidSetPinValue+0x1ba>
 5a6:	88 0f       	add	r24, r24
 5a8:	99 1f       	adc	r25, r25
 5aa:	0a 94       	dec	r0
 5ac:	e2 f7       	brpl	.-8      	; 0x5a6 <DIO_VidSetPinValue+0x1b6>
 5ae:	80 95       	com	r24
 5b0:	84 23       	and	r24, r20
 5b2:	8c 93       	st	X, r24
 5b4:	14 c0       	rjmp	.+40     	; 0x5de <DIO_VidSetPinValue+0x1ee>
		case PORTD_NUM :		CLEAR_BIT(PORTD,Copy_U8Pin);			break;
 5b6:	a2 e3       	ldi	r26, 0x32	; 50
 5b8:	b0 e0       	ldi	r27, 0x00	; 0
 5ba:	e2 e3       	ldi	r30, 0x32	; 50
 5bc:	f0 e0       	ldi	r31, 0x00	; 0
 5be:	80 81       	ld	r24, Z
 5c0:	48 2f       	mov	r20, r24
 5c2:	8a 81       	ldd	r24, Y+2	; 0x02
 5c4:	28 2f       	mov	r18, r24
 5c6:	30 e0       	ldi	r19, 0x00	; 0
 5c8:	81 e0       	ldi	r24, 0x01	; 1
 5ca:	90 e0       	ldi	r25, 0x00	; 0
 5cc:	02 2e       	mov	r0, r18
 5ce:	02 c0       	rjmp	.+4      	; 0x5d4 <DIO_VidSetPinValue+0x1e4>
 5d0:	88 0f       	add	r24, r24
 5d2:	99 1f       	adc	r25, r25
 5d4:	0a 94       	dec	r0
 5d6:	e2 f7       	brpl	.-8      	; 0x5d0 <DIO_VidSetPinValue+0x1e0>
 5d8:	80 95       	com	r24
 5da:	84 23       	and	r24, r20
 5dc:	8c 93       	st	X, r24

		}
}
}
 5de:	27 96       	adiw	r28, 0x07	; 7
 5e0:	0f b6       	in	r0, 0x3f	; 63
 5e2:	f8 94       	cli
 5e4:	de bf       	out	0x3e, r29	; 62
 5e6:	0f be       	out	0x3f, r0	; 63
 5e8:	cd bf       	out	0x3d, r28	; 61
 5ea:	cf 91       	pop	r28
 5ec:	df 91       	pop	r29
 5ee:	08 95       	ret

000005f0 <DIO_VidGetPinValue>:





u8 DIO_VidGetPinValue(u8 Copy_U8Port,u8 Copy_U8Pin){
 5f0:	df 93       	push	r29
 5f2:	cf 93       	push	r28
 5f4:	00 d0       	rcall	.+0      	; 0x5f6 <DIO_VidGetPinValue+0x6>
 5f6:	00 d0       	rcall	.+0      	; 0x5f8 <DIO_VidGetPinValue+0x8>
 5f8:	0f 92       	push	r0
 5fa:	cd b7       	in	r28, 0x3d	; 61
 5fc:	de b7       	in	r29, 0x3e	; 62
 5fe:	8a 83       	std	Y+2, r24	; 0x02
 600:	6b 83       	std	Y+3, r22	; 0x03
u8 Lcal_U8PinResult=0;
 602:	19 82       	std	Y+1, r1	; 0x01
	switch(Copy_U8Port){
 604:	8a 81       	ldd	r24, Y+2	; 0x02
 606:	28 2f       	mov	r18, r24
 608:	30 e0       	ldi	r19, 0x00	; 0
 60a:	3d 83       	std	Y+5, r19	; 0x05
 60c:	2c 83       	std	Y+4, r18	; 0x04
 60e:	4c 81       	ldd	r20, Y+4	; 0x04
 610:	5d 81       	ldd	r21, Y+5	; 0x05
 612:	41 30       	cpi	r20, 0x01	; 1
 614:	51 05       	cpc	r21, r1
 616:	41 f1       	breq	.+80     	; 0x668 <DIO_VidGetPinValue+0x78>
 618:	8c 81       	ldd	r24, Y+4	; 0x04
 61a:	9d 81       	ldd	r25, Y+5	; 0x05
 61c:	82 30       	cpi	r24, 0x02	; 2
 61e:	91 05       	cpc	r25, r1
 620:	34 f4       	brge	.+12     	; 0x62e <DIO_VidGetPinValue+0x3e>
 622:	2c 81       	ldd	r18, Y+4	; 0x04
 624:	3d 81       	ldd	r19, Y+5	; 0x05
 626:	21 15       	cp	r18, r1
 628:	31 05       	cpc	r19, r1
 62a:	61 f0       	breq	.+24     	; 0x644 <DIO_VidGetPinValue+0x54>
 62c:	52 c0       	rjmp	.+164    	; 0x6d2 <DIO_VidGetPinValue+0xe2>
 62e:	4c 81       	ldd	r20, Y+4	; 0x04
 630:	5d 81       	ldd	r21, Y+5	; 0x05
 632:	42 30       	cpi	r20, 0x02	; 2
 634:	51 05       	cpc	r21, r1
 636:	51 f1       	breq	.+84     	; 0x68c <DIO_VidGetPinValue+0x9c>
 638:	8c 81       	ldd	r24, Y+4	; 0x04
 63a:	9d 81       	ldd	r25, Y+5	; 0x05
 63c:	83 30       	cpi	r24, 0x03	; 3
 63e:	91 05       	cpc	r25, r1
 640:	b9 f1       	breq	.+110    	; 0x6b0 <DIO_VidGetPinValue+0xc0>
 642:	47 c0       	rjmp	.+142    	; 0x6d2 <DIO_VidGetPinValue+0xe2>

			case PORTA_NUM :		Lcal_U8PinResult=GET_BIT(PINA,Copy_U8Pin);	        break;
 644:	e9 e3       	ldi	r30, 0x39	; 57
 646:	f0 e0       	ldi	r31, 0x00	; 0
 648:	80 81       	ld	r24, Z
 64a:	28 2f       	mov	r18, r24
 64c:	30 e0       	ldi	r19, 0x00	; 0
 64e:	8b 81       	ldd	r24, Y+3	; 0x03
 650:	88 2f       	mov	r24, r24
 652:	90 e0       	ldi	r25, 0x00	; 0
 654:	a9 01       	movw	r20, r18
 656:	02 c0       	rjmp	.+4      	; 0x65c <DIO_VidGetPinValue+0x6c>
 658:	55 95       	asr	r21
 65a:	47 95       	ror	r20
 65c:	8a 95       	dec	r24
 65e:	e2 f7       	brpl	.-8      	; 0x658 <DIO_VidGetPinValue+0x68>
 660:	ca 01       	movw	r24, r20
 662:	81 70       	andi	r24, 0x01	; 1
 664:	89 83       	std	Y+1, r24	; 0x01
 666:	35 c0       	rjmp	.+106    	; 0x6d2 <DIO_VidGetPinValue+0xe2>
			case PORTB_NUM :		Lcal_U8PinResult=GET_BIT(PINB,Copy_U8Pin); 		    break;
 668:	e6 e3       	ldi	r30, 0x36	; 54
 66a:	f0 e0       	ldi	r31, 0x00	; 0
 66c:	80 81       	ld	r24, Z
 66e:	28 2f       	mov	r18, r24
 670:	30 e0       	ldi	r19, 0x00	; 0
 672:	8b 81       	ldd	r24, Y+3	; 0x03
 674:	88 2f       	mov	r24, r24
 676:	90 e0       	ldi	r25, 0x00	; 0
 678:	a9 01       	movw	r20, r18
 67a:	02 c0       	rjmp	.+4      	; 0x680 <DIO_VidGetPinValue+0x90>
 67c:	55 95       	asr	r21
 67e:	47 95       	ror	r20
 680:	8a 95       	dec	r24
 682:	e2 f7       	brpl	.-8      	; 0x67c <DIO_VidGetPinValue+0x8c>
 684:	ca 01       	movw	r24, r20
 686:	81 70       	andi	r24, 0x01	; 1
 688:	89 83       	std	Y+1, r24	; 0x01
 68a:	23 c0       	rjmp	.+70     	; 0x6d2 <DIO_VidGetPinValue+0xe2>
			case PORTC_NUM :		Lcal_U8PinResult=GET_BIT(PINC,Copy_U8Pin);			break;
 68c:	e3 e3       	ldi	r30, 0x33	; 51
 68e:	f0 e0       	ldi	r31, 0x00	; 0
 690:	80 81       	ld	r24, Z
 692:	28 2f       	mov	r18, r24
 694:	30 e0       	ldi	r19, 0x00	; 0
 696:	8b 81       	ldd	r24, Y+3	; 0x03
 698:	88 2f       	mov	r24, r24
 69a:	90 e0       	ldi	r25, 0x00	; 0
 69c:	a9 01       	movw	r20, r18
 69e:	02 c0       	rjmp	.+4      	; 0x6a4 <DIO_VidGetPinValue+0xb4>
 6a0:	55 95       	asr	r21
 6a2:	47 95       	ror	r20
 6a4:	8a 95       	dec	r24
 6a6:	e2 f7       	brpl	.-8      	; 0x6a0 <DIO_VidGetPinValue+0xb0>
 6a8:	ca 01       	movw	r24, r20
 6aa:	81 70       	andi	r24, 0x01	; 1
 6ac:	89 83       	std	Y+1, r24	; 0x01
 6ae:	11 c0       	rjmp	.+34     	; 0x6d2 <DIO_VidGetPinValue+0xe2>
			case PORTD_NUM :		Lcal_U8PinResult=GET_BIT(PIND,Copy_U8Pin);			break;
 6b0:	e0 e3       	ldi	r30, 0x30	; 48
 6b2:	f0 e0       	ldi	r31, 0x00	; 0
 6b4:	80 81       	ld	r24, Z
 6b6:	28 2f       	mov	r18, r24
 6b8:	30 e0       	ldi	r19, 0x00	; 0
 6ba:	8b 81       	ldd	r24, Y+3	; 0x03
 6bc:	88 2f       	mov	r24, r24
 6be:	90 e0       	ldi	r25, 0x00	; 0
 6c0:	a9 01       	movw	r20, r18
 6c2:	02 c0       	rjmp	.+4      	; 0x6c8 <DIO_VidGetPinValue+0xd8>
 6c4:	55 95       	asr	r21
 6c6:	47 95       	ror	r20
 6c8:	8a 95       	dec	r24
 6ca:	e2 f7       	brpl	.-8      	; 0x6c4 <DIO_VidGetPinValue+0xd4>
 6cc:	ca 01       	movw	r24, r20
 6ce:	81 70       	andi	r24, 0x01	; 1
 6d0:	89 83       	std	Y+1, r24	; 0x01

			}


return(Lcal_U8PinResult);
 6d2:	89 81       	ldd	r24, Y+1	; 0x01


}
 6d4:	0f 90       	pop	r0
 6d6:	0f 90       	pop	r0
 6d8:	0f 90       	pop	r0
 6da:	0f 90       	pop	r0
 6dc:	0f 90       	pop	r0
 6de:	cf 91       	pop	r28
 6e0:	df 91       	pop	r29
 6e2:	08 95       	ret

000006e4 <DIO_VidTogglePin>:


void DIO_VidTogglePin(u8 Copy_U8Port,u8 Copy_U8Pin){
 6e4:	df 93       	push	r29
 6e6:	cf 93       	push	r28
 6e8:	00 d0       	rcall	.+0      	; 0x6ea <DIO_VidTogglePin+0x6>
 6ea:	00 d0       	rcall	.+0      	; 0x6ec <DIO_VidTogglePin+0x8>
 6ec:	cd b7       	in	r28, 0x3d	; 61
 6ee:	de b7       	in	r29, 0x3e	; 62
 6f0:	89 83       	std	Y+1, r24	; 0x01
 6f2:	6a 83       	std	Y+2, r22	; 0x02

	switch(Copy_U8Port){
 6f4:	89 81       	ldd	r24, Y+1	; 0x01
 6f6:	28 2f       	mov	r18, r24
 6f8:	30 e0       	ldi	r19, 0x00	; 0
 6fa:	3c 83       	std	Y+4, r19	; 0x04
 6fc:	2b 83       	std	Y+3, r18	; 0x03
 6fe:	8b 81       	ldd	r24, Y+3	; 0x03
 700:	9c 81       	ldd	r25, Y+4	; 0x04
 702:	81 30       	cpi	r24, 0x01	; 1
 704:	91 05       	cpc	r25, r1
 706:	49 f1       	breq	.+82     	; 0x75a <DIO_VidTogglePin+0x76>
 708:	2b 81       	ldd	r18, Y+3	; 0x03
 70a:	3c 81       	ldd	r19, Y+4	; 0x04
 70c:	22 30       	cpi	r18, 0x02	; 2
 70e:	31 05       	cpc	r19, r1
 710:	2c f4       	brge	.+10     	; 0x71c <DIO_VidTogglePin+0x38>
 712:	8b 81       	ldd	r24, Y+3	; 0x03
 714:	9c 81       	ldd	r25, Y+4	; 0x04
 716:	00 97       	sbiw	r24, 0x00	; 0
 718:	61 f0       	breq	.+24     	; 0x732 <DIO_VidTogglePin+0x4e>
 71a:	5a c0       	rjmp	.+180    	; 0x7d0 <DIO_VidTogglePin+0xec>
 71c:	2b 81       	ldd	r18, Y+3	; 0x03
 71e:	3c 81       	ldd	r19, Y+4	; 0x04
 720:	22 30       	cpi	r18, 0x02	; 2
 722:	31 05       	cpc	r19, r1
 724:	71 f1       	breq	.+92     	; 0x782 <DIO_VidTogglePin+0x9e>
 726:	8b 81       	ldd	r24, Y+3	; 0x03
 728:	9c 81       	ldd	r25, Y+4	; 0x04
 72a:	83 30       	cpi	r24, 0x03	; 3
 72c:	91 05       	cpc	r25, r1
 72e:	e9 f1       	breq	.+122    	; 0x7aa <DIO_VidTogglePin+0xc6>
 730:	4f c0       	rjmp	.+158    	; 0x7d0 <DIO_VidTogglePin+0xec>

		case PORTA_NUM :		TOGGLE_BIT(PORTA,Copy_U8Pin)	;			break;
 732:	ab e3       	ldi	r26, 0x3B	; 59
 734:	b0 e0       	ldi	r27, 0x00	; 0
 736:	eb e3       	ldi	r30, 0x3B	; 59
 738:	f0 e0       	ldi	r31, 0x00	; 0
 73a:	80 81       	ld	r24, Z
 73c:	48 2f       	mov	r20, r24
 73e:	8a 81       	ldd	r24, Y+2	; 0x02
 740:	28 2f       	mov	r18, r24
 742:	30 e0       	ldi	r19, 0x00	; 0
 744:	81 e0       	ldi	r24, 0x01	; 1
 746:	90 e0       	ldi	r25, 0x00	; 0
 748:	02 2e       	mov	r0, r18
 74a:	02 c0       	rjmp	.+4      	; 0x750 <DIO_VidTogglePin+0x6c>
 74c:	88 0f       	add	r24, r24
 74e:	99 1f       	adc	r25, r25
 750:	0a 94       	dec	r0
 752:	e2 f7       	brpl	.-8      	; 0x74c <DIO_VidTogglePin+0x68>
 754:	84 27       	eor	r24, r20
 756:	8c 93       	st	X, r24
 758:	3b c0       	rjmp	.+118    	; 0x7d0 <DIO_VidTogglePin+0xec>
		case PORTB_NUM :		TOGGLE_BIT(PORTA,Copy_U8Pin) 	;	    break;
 75a:	ab e3       	ldi	r26, 0x3B	; 59
 75c:	b0 e0       	ldi	r27, 0x00	; 0
 75e:	eb e3       	ldi	r30, 0x3B	; 59
 760:	f0 e0       	ldi	r31, 0x00	; 0
 762:	80 81       	ld	r24, Z
 764:	48 2f       	mov	r20, r24
 766:	8a 81       	ldd	r24, Y+2	; 0x02
 768:	28 2f       	mov	r18, r24
 76a:	30 e0       	ldi	r19, 0x00	; 0
 76c:	81 e0       	ldi	r24, 0x01	; 1
 76e:	90 e0       	ldi	r25, 0x00	; 0
 770:	02 2e       	mov	r0, r18
 772:	02 c0       	rjmp	.+4      	; 0x778 <DIO_VidTogglePin+0x94>
 774:	88 0f       	add	r24, r24
 776:	99 1f       	adc	r25, r25
 778:	0a 94       	dec	r0
 77a:	e2 f7       	brpl	.-8      	; 0x774 <DIO_VidTogglePin+0x90>
 77c:	84 27       	eor	r24, r20
 77e:	8c 93       	st	X, r24
 780:	27 c0       	rjmp	.+78     	; 0x7d0 <DIO_VidTogglePin+0xec>
		case PORTC_NUM :		TOGGLE_BIT(PORTA,Copy_U8Pin)	;	    break;
 782:	ab e3       	ldi	r26, 0x3B	; 59
 784:	b0 e0       	ldi	r27, 0x00	; 0
 786:	eb e3       	ldi	r30, 0x3B	; 59
 788:	f0 e0       	ldi	r31, 0x00	; 0
 78a:	80 81       	ld	r24, Z
 78c:	48 2f       	mov	r20, r24
 78e:	8a 81       	ldd	r24, Y+2	; 0x02
 790:	28 2f       	mov	r18, r24
 792:	30 e0       	ldi	r19, 0x00	; 0
 794:	81 e0       	ldi	r24, 0x01	; 1
 796:	90 e0       	ldi	r25, 0x00	; 0
 798:	02 2e       	mov	r0, r18
 79a:	02 c0       	rjmp	.+4      	; 0x7a0 <DIO_VidTogglePin+0xbc>
 79c:	88 0f       	add	r24, r24
 79e:	99 1f       	adc	r25, r25
 7a0:	0a 94       	dec	r0
 7a2:	e2 f7       	brpl	.-8      	; 0x79c <DIO_VidTogglePin+0xb8>
 7a4:	84 27       	eor	r24, r20
 7a6:	8c 93       	st	X, r24
 7a8:	13 c0       	rjmp	.+38     	; 0x7d0 <DIO_VidTogglePin+0xec>
		case PORTD_NUM :		TOGGLE_BIT(PORTA,Copy_U8Pin)	;	    break;
 7aa:	ab e3       	ldi	r26, 0x3B	; 59
 7ac:	b0 e0       	ldi	r27, 0x00	; 0
 7ae:	eb e3       	ldi	r30, 0x3B	; 59
 7b0:	f0 e0       	ldi	r31, 0x00	; 0
 7b2:	80 81       	ld	r24, Z
 7b4:	48 2f       	mov	r20, r24
 7b6:	8a 81       	ldd	r24, Y+2	; 0x02
 7b8:	28 2f       	mov	r18, r24
 7ba:	30 e0       	ldi	r19, 0x00	; 0
 7bc:	81 e0       	ldi	r24, 0x01	; 1
 7be:	90 e0       	ldi	r25, 0x00	; 0
 7c0:	02 2e       	mov	r0, r18
 7c2:	02 c0       	rjmp	.+4      	; 0x7c8 <DIO_VidTogglePin+0xe4>
 7c4:	88 0f       	add	r24, r24
 7c6:	99 1f       	adc	r25, r25
 7c8:	0a 94       	dec	r0
 7ca:	e2 f7       	brpl	.-8      	; 0x7c4 <DIO_VidTogglePin+0xe0>
 7cc:	84 27       	eor	r24, r20
 7ce:	8c 93       	st	X, r24

		}



}
 7d0:	0f 90       	pop	r0
 7d2:	0f 90       	pop	r0
 7d4:	0f 90       	pop	r0
 7d6:	0f 90       	pop	r0
 7d8:	cf 91       	pop	r28
 7da:	df 91       	pop	r29
 7dc:	08 95       	ret

000007de <SPI_voidMSInit>:

static void (*MSPI_CallBack)(u8 Data);

/*With master slave select*/
void SPI_voidMSInit(u8 Copy_U8MS_Select)
{
 7de:	df 93       	push	r29
 7e0:	cf 93       	push	r28
 7e2:	00 d0       	rcall	.+0      	; 0x7e4 <SPI_voidMSInit+0x6>
 7e4:	cd b7       	in	r28, 0x3d	; 61
 7e6:	de b7       	in	r29, 0x3e	; 62
 7e8:	89 83       	std	Y+1, r24	; 0x01
#if SPI_CASE == SPI_ENABLE


	/*Clear register*/
	SPCR = 0;
 7ea:	ed e2       	ldi	r30, 0x2D	; 45
 7ec:	f0 e0       	ldi	r31, 0x00	; 0
 7ee:	10 82       	st	Z, r1
	/*****************************CLK Phase***********************************/

	SPCR |= (MSPI_CPHA_SELECT<<2) ;
 7f0:	ad e2       	ldi	r26, 0x2D	; 45
 7f2:	b0 e0       	ldi	r27, 0x00	; 0
 7f4:	ed e2       	ldi	r30, 0x2D	; 45
 7f6:	f0 e0       	ldi	r31, 0x00	; 0
 7f8:	80 81       	ld	r24, Z
 7fa:	84 60       	ori	r24, 0x04	; 4
 7fc:	8c 93       	st	X, r24

	/*****************************CLK Polarity***********************************/

	SPCR |= (MSPI_CPOL_SELECT<<3) ;
 7fe:	ad e2       	ldi	r26, 0x2D	; 45
 800:	b0 e0       	ldi	r27, 0x00	; 0
 802:	ed e2       	ldi	r30, 0x2D	; 45
 804:	f0 e0       	ldi	r31, 0x00	; 0
 806:	80 81       	ld	r24, Z
 808:	8c 93       	st	X, r24
	/****************************Data Order ************************************/

	SPCR |= (MSPI_FRAME_SELECT<<5) ;
 80a:	ad e2       	ldi	r26, 0x2D	; 45
 80c:	b0 e0       	ldi	r27, 0x00	; 0
 80e:	ed e2       	ldi	r30, 0x2D	; 45
 810:	f0 e0       	ldi	r31, 0x00	; 0
 812:	80 81       	ld	r24, Z
 814:	80 62       	ori	r24, 0x20	; 32
 816:	8c 93       	st	X, r24



/*****************************Master slave select ***********************************/

if  (Copy_U8MS_Select == MASTER ){
 818:	89 81       	ldd	r24, Y+1	; 0x01
 81a:	81 30       	cpi	r24, 0x01	; 1
 81c:	e1 f5       	brne	.+120    	; 0x896 <__stack+0x37>

	/****************************MASTER SELECT ************************************/
	SPCR |= (MASTER<<4) ;
 81e:	ad e2       	ldi	r26, 0x2D	; 45
 820:	b0 e0       	ldi	r27, 0x00	; 0
 822:	ed e2       	ldi	r30, 0x2D	; 45
 824:	f0 e0       	ldi	r31, 0x00	; 0
 826:	80 81       	ld	r24, Z
 828:	80 61       	ori	r24, 0x10	; 16
 82a:	8c 93       	st	X, r24

	/****************************MASTER PINS CONFIGARTION ************************************/


	/*SS  PIN  Config.*/
	DIO_VidSetPinDirection( PORTB_NUM,PIN4_NUM, OUTPUT) ;
 82c:	81 e0       	ldi	r24, 0x01	; 1
 82e:	64 e0       	ldi	r22, 0x04	; 4
 830:	41 e0       	ldi	r20, 0x01	; 1
 832:	0e 94 f8 00 	call	0x1f0	; 0x1f0 <DIO_VidSetPinDirection>
	/*MOSI  PIN  Config.*/
	DIO_VidSetPinDirection( PORTB_NUM,PIN5_NUM, OUTPUT) ;
 836:	81 e0       	ldi	r24, 0x01	; 1
 838:	65 e0       	ldi	r22, 0x05	; 5
 83a:	41 e0       	ldi	r20, 0x01	; 1
 83c:	0e 94 f8 00 	call	0x1f0	; 0x1f0 <DIO_VidSetPinDirection>
	/*MISO  PIN  Config.*/
	DIO_VidSetPinDirection( PORTB_NUM,PIN6_NUM, INPUT) ;
 840:	81 e0       	ldi	r24, 0x01	; 1
 842:	66 e0       	ldi	r22, 0x06	; 6
 844:	40 e0       	ldi	r20, 0x00	; 0
 846:	0e 94 f8 00 	call	0x1f0	; 0x1f0 <DIO_VidSetPinDirection>
	/*SCK  PIN  Config.*/
	DIO_VidSetPinDirection( PORTB_NUM,PIN7_NUM, OUTPUT) ;
 84a:	81 e0       	ldi	r24, 0x01	; 1
 84c:	67 e0       	ldi	r22, 0x07	; 7
 84e:	41 e0       	ldi	r20, 0x01	; 1
 850:	0e 94 f8 00 	call	0x1f0	; 0x1f0 <DIO_VidSetPinDirection>


	/***************************** interrupt case ***********************************/
	SPCR |= (MSPI_INTERRUPT_CASE<<7)  ;
 854:	ad e2       	ldi	r26, 0x2D	; 45
 856:	b0 e0       	ldi	r27, 0x00	; 0
 858:	ed e2       	ldi	r30, 0x2D	; 45
 85a:	f0 e0       	ldi	r31, 0x00	; 0
 85c:	80 81       	ld	r24, Z
 85e:	8c 93       	st	X, r24

	/*************************** CLK Rate Selection **********************/


	/*Set CLK bit0 and bit 1*/
	SPCR |= (0b011&MSPI_CLK_RATE_SELECT)  ;
 860:	ad e2       	ldi	r26, 0x2D	; 45
 862:	b0 e0       	ldi	r27, 0x00	; 0
 864:	ed e2       	ldi	r30, 0x2D	; 45
 866:	f0 e0       	ldi	r31, 0x00	; 0
 868:	80 81       	ld	r24, Z
 86a:	82 60       	ori	r24, 0x02	; 2
 86c:	8c 93       	st	X, r24

	/*Clear bit 0 IN SPSR*/
	SPSR &= 0   ;
 86e:	ee e2       	ldi	r30, 0x2E	; 46
 870:	f0 e0       	ldi	r31, 0x00	; 0
 872:	80 81       	ld	r24, Z
 874:	ee e2       	ldi	r30, 0x2E	; 46
 876:	f0 e0       	ldi	r31, 0x00	; 0
 878:	10 82       	st	Z, r1

	/*Set CLK bit2 in bit 0 of SPSR*/
	SPSR |= (MSPI_CLK_RATE_SELECT>>2)  ;
 87a:	ae e2       	ldi	r26, 0x2E	; 46
 87c:	b0 e0       	ldi	r27, 0x00	; 0
 87e:	ee e2       	ldi	r30, 0x2E	; 46
 880:	f0 e0       	ldi	r31, 0x00	; 0
 882:	80 81       	ld	r24, Z
 884:	8c 93       	st	X, r24




	SET_BIT(SPCR,6) ;
 886:	ad e2       	ldi	r26, 0x2D	; 45
 888:	b0 e0       	ldi	r27, 0x00	; 0
 88a:	ed e2       	ldi	r30, 0x2D	; 45
 88c:	f0 e0       	ldi	r31, 0x00	; 0
 88e:	80 81       	ld	r24, Z
 890:	80 64       	ori	r24, 0x40	; 64
 892:	8c 93       	st	X, r24
 894:	2a c0       	rjmp	.+84     	; 0x8ea <__stack+0x8b>



}

else if (   Copy_U8MS_Select == SLAVE )
 896:	89 81       	ldd	r24, Y+1	; 0x01
 898:	88 23       	and	r24, r24
 89a:	39 f5       	brne	.+78     	; 0x8ea <__stack+0x8b>
{
	/****************************SLAVE SELECT ************************************/

	SPCR |= (SLAVE<<4) ;
 89c:	ad e2       	ldi	r26, 0x2D	; 45
 89e:	b0 e0       	ldi	r27, 0x00	; 0
 8a0:	ed e2       	ldi	r30, 0x2D	; 45
 8a2:	f0 e0       	ldi	r31, 0x00	; 0
 8a4:	80 81       	ld	r24, Z
 8a6:	8c 93       	st	X, r24
	/****************************SLAVE PINS CONFIGARTION ************************************/

	/*SS  PIN  Config.*/
	DIO_VidSetPinDirection( PORTB_NUM,PIN4_NUM, INPUT) ;
 8a8:	81 e0       	ldi	r24, 0x01	; 1
 8aa:	64 e0       	ldi	r22, 0x04	; 4
 8ac:	40 e0       	ldi	r20, 0x00	; 0
 8ae:	0e 94 f8 00 	call	0x1f0	; 0x1f0 <DIO_VidSetPinDirection>
	/*MOSI  PIN  Config.*/
	DIO_VidSetPinDirection( PORTB_NUM,PIN5_NUM, INPUT) ;
 8b2:	81 e0       	ldi	r24, 0x01	; 1
 8b4:	65 e0       	ldi	r22, 0x05	; 5
 8b6:	40 e0       	ldi	r20, 0x00	; 0
 8b8:	0e 94 f8 00 	call	0x1f0	; 0x1f0 <DIO_VidSetPinDirection>
	/*MISO  PIN  Config.*/
	DIO_VidSetPinDirection( PORTB_NUM,PIN6_NUM, OUTPUT) ;
 8bc:	81 e0       	ldi	r24, 0x01	; 1
 8be:	66 e0       	ldi	r22, 0x06	; 6
 8c0:	41 e0       	ldi	r20, 0x01	; 1
 8c2:	0e 94 f8 00 	call	0x1f0	; 0x1f0 <DIO_VidSetPinDirection>
	/*SCK  PIN  Config.*/
	DIO_VidSetPinDirection( PORTB_NUM,PIN7_NUM, INPUT) ;
 8c6:	81 e0       	ldi	r24, 0x01	; 1
 8c8:	67 e0       	ldi	r22, 0x07	; 7
 8ca:	40 e0       	ldi	r20, 0x00	; 0
 8cc:	0e 94 f8 00 	call	0x1f0	; 0x1f0 <DIO_VidSetPinDirection>


	/***************************** interrupt case ***********************************/
	SPCR |= (MSPI_INTERRUPT_CASE<<7)  ;
 8d0:	ad e2       	ldi	r26, 0x2D	; 45
 8d2:	b0 e0       	ldi	r27, 0x00	; 0
 8d4:	ed e2       	ldi	r30, 0x2D	; 45
 8d6:	f0 e0       	ldi	r31, 0x00	; 0
 8d8:	80 81       	ld	r24, Z
 8da:	8c 93       	st	X, r24
	/*****************************Enable SPI ***********************************/
	SET_BIT(SPCR,6) ;
 8dc:	ad e2       	ldi	r26, 0x2D	; 45
 8de:	b0 e0       	ldi	r27, 0x00	; 0
 8e0:	ed e2       	ldi	r30, 0x2D	; 45
 8e2:	f0 e0       	ldi	r31, 0x00	; 0
 8e4:	80 81       	ld	r24, Z
 8e6:	80 64       	ori	r24, 0x40	; 64
 8e8:	8c 93       	st	X, r24

#endif



}
 8ea:	0f 90       	pop	r0
 8ec:	0f 90       	pop	r0
 8ee:	cf 91       	pop	r28
 8f0:	df 91       	pop	r29
 8f2:	08 95       	ret

000008f4 <SPI_voidSlaveSelect>:



void SPI_voidSlaveSelect(void)
{
 8f4:	df 93       	push	r29
 8f6:	cf 93       	push	r28
 8f8:	cd b7       	in	r28, 0x3d	; 61
 8fa:	de b7       	in	r29, 0x3e	; 62

	DIO_VidSetPinValue(PORTB_NUM,PIN4_NUM,LOW);
 8fc:	81 e0       	ldi	r24, 0x01	; 1
 8fe:	64 e0       	ldi	r22, 0x04	; 4
 900:	40 e0       	ldi	r20, 0x00	; 0
 902:	0e 94 f8 01 	call	0x3f0	; 0x3f0 <DIO_VidSetPinValue>

}
 906:	cf 91       	pop	r28
 908:	df 91       	pop	r29
 90a:	08 95       	ret

0000090c <SPI_voidSlaveRelease>:

void SPI_voidSlaveRelease(void)
{
 90c:	df 93       	push	r29
 90e:	cf 93       	push	r28
 910:	cd b7       	in	r28, 0x3d	; 61
 912:	de b7       	in	r29, 0x3e	; 62

	DIO_VidSetPinValue(PORTB_NUM,PIN4_NUM,HIGH);
 914:	81 e0       	ldi	r24, 0x01	; 1
 916:	64 e0       	ldi	r22, 0x04	; 4
 918:	41 e0       	ldi	r20, 0x01	; 1
 91a:	0e 94 f8 01 	call	0x3f0	; 0x3f0 <DIO_VidSetPinValue>


}
 91e:	cf 91       	pop	r28
 920:	df 91       	pop	r29
 922:	08 95       	ret

00000924 <MSPI_VidEnable>:



void MSPI_VidEnable ()
{
 924:	df 93       	push	r29
 926:	cf 93       	push	r28
 928:	cd b7       	in	r28, 0x3d	; 61
 92a:	de b7       	in	r29, 0x3e	; 62
	/*****************************Enable SPI ***********************************/
				SET_BIT(SPCR,6) ;
 92c:	ad e2       	ldi	r26, 0x2D	; 45
 92e:	b0 e0       	ldi	r27, 0x00	; 0
 930:	ed e2       	ldi	r30, 0x2D	; 45
 932:	f0 e0       	ldi	r31, 0x00	; 0
 934:	80 81       	ld	r24, Z
 936:	80 64       	ori	r24, 0x40	; 64
 938:	8c 93       	st	X, r24


}
 93a:	cf 91       	pop	r28
 93c:	df 91       	pop	r29
 93e:	08 95       	ret

00000940 <MSPI_VidDisable>:


void MSPI_VidDisable ()
{
 940:	df 93       	push	r29
 942:	cf 93       	push	r28
 944:	cd b7       	in	r28, 0x3d	; 61
 946:	de b7       	in	r29, 0x3e	; 62

	/*****************************Disable SPI ***********************************/
									CLEAR_BIT(SPCR,6)  ;
 948:	ad e2       	ldi	r26, 0x2D	; 45
 94a:	b0 e0       	ldi	r27, 0x00	; 0
 94c:	ed e2       	ldi	r30, 0x2D	; 45
 94e:	f0 e0       	ldi	r31, 0x00	; 0
 950:	80 81       	ld	r24, Z
 952:	8f 7b       	andi	r24, 0xBF	; 191
 954:	8c 93       	st	X, r24
}
 956:	cf 91       	pop	r28
 958:	df 91       	pop	r29
 95a:	08 95       	ret

0000095c <MSPI_VidInterruptEnable>:




void MSPI_VidInterruptEnable ()
{
 95c:	df 93       	push	r29
 95e:	cf 93       	push	r28
 960:	cd b7       	in	r28, 0x3d	; 61
 962:	de b7       	in	r29, 0x3e	; 62

	SET_BIT(SPCR,7) ;
 964:	ad e2       	ldi	r26, 0x2D	; 45
 966:	b0 e0       	ldi	r27, 0x00	; 0
 968:	ed e2       	ldi	r30, 0x2D	; 45
 96a:	f0 e0       	ldi	r31, 0x00	; 0
 96c:	80 81       	ld	r24, Z
 96e:	80 68       	ori	r24, 0x80	; 128
 970:	8c 93       	st	X, r24
}
 972:	cf 91       	pop	r28
 974:	df 91       	pop	r29
 976:	08 95       	ret

00000978 <MSPI_VidInterruptDisable>:


void MSPI_VidInterruptDisable ()
{
 978:	df 93       	push	r29
 97a:	cf 93       	push	r28
 97c:	cd b7       	in	r28, 0x3d	; 61
 97e:	de b7       	in	r29, 0x3e	; 62

	CLEAR_BIT(SPCR,7) ;
 980:	ad e2       	ldi	r26, 0x2D	; 45
 982:	b0 e0       	ldi	r27, 0x00	; 0
 984:	ed e2       	ldi	r30, 0x2D	; 45
 986:	f0 e0       	ldi	r31, 0x00	; 0
 988:	80 81       	ld	r24, Z
 98a:	8f 77       	andi	r24, 0x7F	; 127
 98c:	8c 93       	st	X, r24
}
 98e:	cf 91       	pop	r28
 990:	df 91       	pop	r29
 992:	08 95       	ret

00000994 <MSPI1_voidSendReceiveSynch>:


/*i have idea by sending struct with slave number in app where slave number is struct contains slave port and pin to be selected by master  */

void MSPI1_voidSendReceiveSynch  ( u8 Copy_u8Data , u8 * Copy_ptrDataToReceive )
{
 994:	df 93       	push	r29
 996:	cf 93       	push	r28
 998:	00 d0       	rcall	.+0      	; 0x99a <MSPI1_voidSendReceiveSynch+0x6>
 99a:	0f 92       	push	r0
 99c:	cd b7       	in	r28, 0x3d	; 61
 99e:	de b7       	in	r29, 0x3e	; 62
 9a0:	89 83       	std	Y+1, r24	; 0x01
 9a2:	7b 83       	std	Y+3, r23	; 0x03
 9a4:	6a 83       	std	Y+2, r22	; 0x02
	/* Disable All Interrupts */

	//MSPI_VidInterruptDisable();

	//SPI_voidSlaveSelect();
	SPDR = Copy_u8Data ;
 9a6:	ef e2       	ldi	r30, 0x2F	; 47
 9a8:	f0 e0       	ldi	r31, 0x00	; 0
 9aa:	89 81       	ldd	r24, Y+1	; 0x01
 9ac:	80 83       	st	Z, r24
/*SPIF looping */
   while(GET_BIT(SPSR,7)==0);
 9ae:	ee e2       	ldi	r30, 0x2E	; 46
 9b0:	f0 e0       	ldi	r31, 0x00	; 0
 9b2:	80 81       	ld	r24, Z
 9b4:	88 23       	and	r24, r24
 9b6:	dc f7       	brge	.-10     	; 0x9ae <MSPI1_voidSendReceiveSynch+0x1a>

	*Copy_ptrDataToReceive= SPDR ;
 9b8:	ef e2       	ldi	r30, 0x2F	; 47
 9ba:	f0 e0       	ldi	r31, 0x00	; 0
 9bc:	80 81       	ld	r24, Z
 9be:	ea 81       	ldd	r30, Y+2	; 0x02
 9c0:	fb 81       	ldd	r31, Y+3	; 0x03
 9c2:	80 83       	st	Z, r24


	//MGPIO_voidSetPinValue(MSPI1_SLAVE_SELECT_PORT, MSPI1_SLAVE_SELECT_PIN , MGPIO_HIGH );

	//SPI_voidSlaveRelease();
}
 9c4:	0f 90       	pop	r0
 9c6:	0f 90       	pop	r0
 9c8:	0f 90       	pop	r0
 9ca:	cf 91       	pop	r28
 9cc:	df 91       	pop	r29
 9ce:	08 95       	ret

000009d0 <MSPI1_voidSendReceiveAsynch>:



void MSPI1_voidSendReceiveAsynch ( u8 Copy_u8Data , void (*Copy_CallBack)(u8 Data) )

{
 9d0:	df 93       	push	r29
 9d2:	cf 93       	push	r28
 9d4:	00 d0       	rcall	.+0      	; 0x9d6 <MSPI1_voidSendReceiveAsynch+0x6>
 9d6:	0f 92       	push	r0
 9d8:	cd b7       	in	r28, 0x3d	; 61
 9da:	de b7       	in	r29, 0x3e	; 62
 9dc:	89 83       	std	Y+1, r24	; 0x01
 9de:	7b 83       	std	Y+3, r23	; 0x03
 9e0:	6a 83       	std	Y+2, r22	; 0x02

	SPDR = Copy_u8Data ;
 9e2:	ef e2       	ldi	r30, 0x2F	; 47
 9e4:	f0 e0       	ldi	r31, 0x00	; 0
 9e6:	89 81       	ldd	r24, Y+1	; 0x01
 9e8:	80 83       	st	Z, r24

	MSPI_CallBack = Copy_CallBack ;
 9ea:	8a 81       	ldd	r24, Y+2	; 0x02
 9ec:	9b 81       	ldd	r25, Y+3	; 0x03
 9ee:	90 93 61 00 	sts	0x0061, r25
 9f2:	80 93 60 00 	sts	0x0060, r24


}
 9f6:	0f 90       	pop	r0
 9f8:	0f 90       	pop	r0
 9fa:	0f 90       	pop	r0
 9fc:	cf 91       	pop	r28
 9fe:	df 91       	pop	r29
 a00:	08 95       	ret

00000a02 <__vector_12>:


void __vector_12(void )

{
 a02:	1f 92       	push	r1
 a04:	0f 92       	push	r0
 a06:	0f b6       	in	r0, 0x3f	; 63
 a08:	0f 92       	push	r0
 a0a:	11 24       	eor	r1, r1
 a0c:	2f 93       	push	r18
 a0e:	3f 93       	push	r19
 a10:	4f 93       	push	r20
 a12:	5f 93       	push	r21
 a14:	6f 93       	push	r22
 a16:	7f 93       	push	r23
 a18:	8f 93       	push	r24
 a1a:	9f 93       	push	r25
 a1c:	af 93       	push	r26
 a1e:	bf 93       	push	r27
 a20:	ef 93       	push	r30
 a22:	ff 93       	push	r31
 a24:	df 93       	push	r29
 a26:	cf 93       	push	r28
 a28:	cd b7       	in	r28, 0x3d	; 61
 a2a:	de b7       	in	r29, 0x3e	; 62

	if (MSPI_CallBack!=0){
 a2c:	80 91 60 00 	lds	r24, 0x0060
 a30:	90 91 61 00 	lds	r25, 0x0061
 a34:	00 97       	sbiw	r24, 0x00	; 0
 a36:	41 f0       	breq	.+16     	; 0xa48 <__vector_12+0x46>
		MSPI_CallBack(SPDR);
 a38:	e0 91 60 00 	lds	r30, 0x0060
 a3c:	f0 91 61 00 	lds	r31, 0x0061
 a40:	af e2       	ldi	r26, 0x2F	; 47
 a42:	b0 e0       	ldi	r27, 0x00	; 0
 a44:	8c 91       	ld	r24, X
 a46:	09 95       	icall
		}

}
 a48:	cf 91       	pop	r28
 a4a:	df 91       	pop	r29
 a4c:	ff 91       	pop	r31
 a4e:	ef 91       	pop	r30
 a50:	bf 91       	pop	r27
 a52:	af 91       	pop	r26
 a54:	9f 91       	pop	r25
 a56:	8f 91       	pop	r24
 a58:	7f 91       	pop	r23
 a5a:	6f 91       	pop	r22
 a5c:	5f 91       	pop	r21
 a5e:	4f 91       	pop	r20
 a60:	3f 91       	pop	r19
 a62:	2f 91       	pop	r18
 a64:	0f 90       	pop	r0
 a66:	0f be       	out	0x3f, r0	; 63
 a68:	0f 90       	pop	r0
 a6a:	1f 90       	pop	r1
 a6c:	18 95       	reti

00000a6e <MSPI_VidSendReciveData>:

/*Global recive data incase of sync or async*/
u8 Global = 0 ;

/*reciving function in case of asynch */
void MSPI_VidSendReciveData(u8 Data){
 a6e:	df 93       	push	r29
 a70:	cf 93       	push	r28
 a72:	0f 92       	push	r0
 a74:	cd b7       	in	r28, 0x3d	; 61
 a76:	de b7       	in	r29, 0x3e	; 62
 a78:	89 83       	std	Y+1, r24	; 0x01
	Global = Data ;
 a7a:	89 81       	ldd	r24, Y+1	; 0x01
 a7c:	80 93 62 00 	sts	0x0062, r24

}
 a80:	0f 90       	pop	r0
 a82:	cf 91       	pop	r28
 a84:	df 91       	pop	r29
 a86:	08 95       	ret

00000a88 <main>:


#elif CODE_FLASH_MODE ==SLAVE


void main (void){
 a88:	df 93       	push	r29
 a8a:	cf 93       	push	r28
 a8c:	cd b7       	in	r28, 0x3d	; 61
 a8e:	de b7       	in	r29, 0x3e	; 62
DIO_VidSetPortDirection(PORTD_NUM ,OUTPUT);
 a90:	83 e0       	ldi	r24, 0x03	; 3
 a92:	61 e0       	ldi	r22, 0x01	; 1
 a94:	0e 94 3e 00 	call	0x7c	; 0x7c <DIO_VidSetPortDirection>
	DIO_VidSetPinDirection(PORTA_NUM,PIN7_NUM,OUTPUT);
 a98:	80 e0       	ldi	r24, 0x00	; 0
 a9a:	67 e0       	ldi	r22, 0x07	; 7
 a9c:	41 e0       	ldi	r20, 0x01	; 1
 a9e:	0e 94 f8 00 	call	0x1f0	; 0x1f0 <DIO_VidSetPinDirection>
	DIO_VidSetPinDirection(PORTA_NUM,PIN6_NUM,OUTPUT);
 aa2:	80 e0       	ldi	r24, 0x00	; 0
 aa4:	66 e0       	ldi	r22, 0x06	; 6
 aa6:	41 e0       	ldi	r20, 0x01	; 1
 aa8:	0e 94 f8 00 	call	0x1f0	; 0x1f0 <DIO_VidSetPinDirection>
	DIO_VidSetPinDirection(PORTA_NUM,PIN5_NUM,OUTPUT);
 aac:	80 e0       	ldi	r24, 0x00	; 0
 aae:	65 e0       	ldi	r22, 0x05	; 5
 ab0:	41 e0       	ldi	r20, 0x01	; 1
 ab2:	0e 94 f8 00 	call	0x1f0	; 0x1f0 <DIO_VidSetPinDirection>

	SPI_voidMSInit(SLAVE) ;
 ab6:	80 e0       	ldi	r24, 0x00	; 0
 ab8:	0e 94 ef 03 	call	0x7de	; 0x7de <SPI_voidMSInit>



	while (1){
		//    MSPI1_voidSendReceiveAsynch ( 5 ,MSPI_VidSendReciveData(10));
		DIO_VidSetPinValue(PORTA_NUM,PIN6_NUM,HIGH);
 abc:	80 e0       	ldi	r24, 0x00	; 0
 abe:	66 e0       	ldi	r22, 0x06	; 6
 ac0:	41 e0       	ldi	r20, 0x01	; 1
 ac2:	0e 94 f8 01 	call	0x3f0	; 0x3f0 <DIO_VidSetPinValue>

		 MSPI1_voidSendReceiveSynch  (20, &Global ) ;
 ac6:	22 e6       	ldi	r18, 0x62	; 98
 ac8:	30 e0       	ldi	r19, 0x00	; 0
 aca:	84 e1       	ldi	r24, 0x14	; 20
 acc:	b9 01       	movw	r22, r18
 ace:	0e 94 ca 04 	call	0x994	; 0x994 <MSPI1_voidSendReceiveSynch>

		 DIO_VidSetPinValue(PORTA_NUM,PIN5_NUM,HIGH);
 ad2:	80 e0       	ldi	r24, 0x00	; 0
 ad4:	65 e0       	ldi	r22, 0x05	; 5
 ad6:	41 e0       	ldi	r20, 0x01	; 1
 ad8:	0e 94 f8 01 	call	0x3f0	; 0x3f0 <DIO_VidSetPinValue>



if (Global == 12){
 adc:	80 91 62 00 	lds	r24, 0x0062
 ae0:	8c 30       	cpi	r24, 0x0C	; 12
 ae2:	31 f4       	brne	.+12     	; 0xaf0 <main+0x68>

DIO_VidSetPinValue(PORTA_NUM,PIN7_NUM,HIGH);
 ae4:	80 e0       	ldi	r24, 0x00	; 0
 ae6:	67 e0       	ldi	r22, 0x07	; 7
 ae8:	41 e0       	ldi	r20, 0x01	; 1
 aea:	0e 94 f8 01 	call	0x3f0	; 0x3f0 <DIO_VidSetPinValue>
 aee:	e6 cf       	rjmp	.-52     	; 0xabc <main+0x34>

	}

else if(Global == 17){
 af0:	80 91 62 00 	lds	r24, 0x0062
 af4:	81 31       	cpi	r24, 0x11	; 17
 af6:	11 f7       	brne	.-60     	; 0xabc <main+0x34>

DIO_VidSetPinValue(PORTA_NUM,PIN7_NUM,LOW);
 af8:	80 e0       	ldi	r24, 0x00	; 0
 afa:	67 e0       	ldi	r22, 0x07	; 7
 afc:	40 e0       	ldi	r20, 0x00	; 0
 afe:	0e 94 f8 01 	call	0x3f0	; 0x3f0 <DIO_VidSetPinValue>
 b02:	dc cf       	rjmp	.-72     	; 0xabc <main+0x34>

00000b04 <_exit>:
 b04:	f8 94       	cli

00000b06 <__stop_program>:
 b06:	ff cf       	rjmp	.-2      	; 0xb06 <__stop_program>
